Certificate:
    Data:
        Version: 3 (0x2)
        Serial Number:
            ff:6c:51:b9:5d:2f:8d:76:33:81:29:5f:67:d5:e4:fc
        Signature Algorithm: sha256WithRSAEncryption
        Issuer: CN=https://otevrenamesta.cz/
        Validity
            Not Before: Oct  1 09:35:28 2019 GMT
            Not After : Sep 15 09:35:28 2022 GMT
        Subject: CN=szrc-test
        Subject Public Key Info:
            Public Key Algorithm: rsaEncryption
                RSA Public-Key: (2048 bit)
                Modulus:
                    00:be:c2:fa:01:83:54:7b:99:49:8c:f6:30:3a:b6:
                    d5:40:7f:7b:75:17:89:4e:cb:de:22:6f:bf:c1:84:
                    cc:9a:22:f9:2b:da:b8:25:3f:52:2e:68:19:cf:f0:
                    d8:ca:99:db:51:38:eb:76:83:69:d8:e4:b1:11:52:
                    07:ef:73:fe:ec:36:c8:d9:da:f9:67:2d:83:64:68:
                    63:80:8c:64:d7:69:fc:cc:6e:9d:12:13:f7:f5:34:
                    79:c5:d5:1c:f7:2a:b2:74:e7:57:29:0a:d5:06:14:
                    bf:c0:5a:18:72:d0:1f:43:a4:93:fe:fe:49:61:d1:
                    fc:c3:17:70:9e:ce:4c:8e:28:c2:6f:1b:15:12:8d:
                    fc:f1:5a:52:d0:92:35:8c:61:52:73:f9:d6:ab:96:
                    c3:1e:84:5e:81:d7:65:60:2a:ff:fe:d8:09:93:fe:
                    58:be:dd:72:69:ea:97:82:71:8e:96:46:ab:89:48:
                    36:a0:86:03:c5:97:c3:41:2e:5d:b5:2c:e6:f6:a4:
                    97:94:85:98:33:1e:ce:68:8e:e4:81:22:d4:c9:39:
                    be:6b:fa:e3:da:76:81:46:b8:aa:95:4f:80:79:21:
                    0a:a3:92:44:1d:01:01:e1:21:eb:78:59:33:4e:59:
                    f8:79:03:6f:a4:7c:55:80:1d:15:6d:d9:10:bd:25:
                    5f:0f
                Exponent: 65537 (0x10001)
        X509v3 extensions:
            X509v3 Basic Constraints: 
                CA:FALSE
            X509v3 Subject Key Identifier: 
                49:22:AF:85:A9:EB:C2:9D:5E:6E:EE:0B:91:45:FB:3C:93:82:9B:98
            X509v3 Authority Key Identifier: 
                keyid:F2:A4:CD:34:9C:3D:F4:04:08:D7:38:8A:CE:F2:5E:B1:16:7C:F1:BD
                DirName:/CN=https://otevrenamesta.cz/
                serial:74:27:3B:A4:5B:11:F8:E1:81:93:E6:9B:77:BB:2C:45:A2:08:33:51

            X509v3 Extended Key Usage: 
                TLS Web Client Authentication
            X509v3 Key Usage: 
                Digital Signature
    Signature Algorithm: sha256WithRSAEncryption
         47:4b:02:4f:4a:70:ba:1b:ef:7b:f1:7f:cb:93:85:0c:c7:54:
         0c:5e:65:29:bd:a5:a7:10:b0:4c:c8:07:1d:a5:1b:0d:f5:1b:
         0e:b2:22:4a:2d:88:93:00:71:4b:1c:3c:00:17:47:1d:ff:66:
         71:73:0a:87:bb:67:57:da:3c:15:7c:e1:3e:67:75:21:1c:40:
         66:bc:b4:cf:05:0a:bd:eb:2e:b6:28:ee:0f:c7:bf:ff:ea:04:
         1c:84:af:b3:11:1e:59:7c:e3:fb:8c:0a:aa:ce:22:2e:f9:2b:
         88:e3:12:77:cc:18:04:19:be:30:af:71:1d:42:aa:27:36:79:
         3a:ad:98:7b:b8:99:67:09:66:a8:64:00:a0:e7:e4:bd:ed:a2:
         bb:ec:76:89:82:4e:fb:e6:51:58:84:38:ae:40:14:43:e8:62:
         8b:26:8a:91:d5:8b:e0:d7:64:4d:d1:7d:54:6c:25:79:85:41:
         74:50:43:a0:1e:16:cd:36:66:48:53:da:ab:29:e5:4a:79:f7:
         a4:0d:28:f3:77:cc:43:21:4e:88:73:9c:37:80:a4:b4:d4:27:
         9c:2d:02:fb:fe:d4:a9:8b:fb:37:5f:ed:5f:e3:24:e3:a3:3b:
         ab:a8:d8:d4:57:b8:01:c5:cc:98:47:0f:b8:bc:4e:1a:6b:8a:
         b1:fe:05:9d
-----BEGIN CERTIFICATE-----
MIIDdDCCAlygAwIBAgIRAP9sUbldL412M4EpX2fV5PwwDQYJKoZIhvcNAQELBQAw
JDEiMCAGA1UEAwwZaHR0cHM6Ly9vdGV2cmVuYW1lc3RhLmN6LzAeFw0xOTEwMDEw
OTM1MjhaFw0yMjA5MTUwOTM1MjhaMBQxEjAQBgNVBAMMCXN6cmMtdGVzdDCCASIw
DQYJKoZIhvcNAQEBBQADggEPADCCAQoCggEBAL7C+gGDVHuZSYz2MDq21UB/e3UX
iU7L3iJvv8GEzJoi+SvauCU/Ui5oGc/w2MqZ21E463aDadjksRFSB+9z/uw2yNna
+Wctg2RoY4CMZNdp/MxunRIT9/U0ecXVHPcqsnTnVykK1QYUv8BaGHLQH0Okk/7+
SWHR/MMXcJ7OTI4owm8bFRKN/PFaUtCSNYxhUnP51quWwx6EXoHXZWAq//7YCZP+
WL7dcmnql4JxjpZGq4lINqCGA8WXw0EuXbUs5vakl5SFmDMezmiO5IEi1Mk5vmv6
49p2gUa4qpVPgHkhCqOSRB0BAeEh63hZM05Z+HkDb6R8VYAdFW3ZEL0lXw8CAwEA
AaOBsDCBrTAJBgNVHRMEAjAAMB0GA1UdDgQWBBRJIq+FqevCnV5u7guRRfs8k4Kb
mDBfBgNVHSMEWDBWgBTypM00nD30BAjXOIrO8l6xFnzxvaEopCYwJDEiMCAGA1UE
AwwZaHR0cHM6Ly9vdGV2cmVuYW1lc3RhLmN6L4IUdCc7pFsR+OGBk+abd7ssRaII
M1EwEwYDVR0lBAwwCgYIKwYBBQUHAwIwCwYDVR0PBAQDAgeAMA0GCSqGSIb3DQEB
CwUAA4IBAQBHSwJPSnC6G+978X/Lk4UMx1QMXmUpvaWnELBMyAcdpRsN9RsOsiJK
LYiTAHFLHDwAF0cd/2ZxcwqHu2dX2jwVfOE+Z3UhHEBmvLTPBQq96y62KO4Px7//
6gQchK+zER5ZfOP7jAqqziIu+SuI4xJ3zBgEGb4wr3EdQqonNnk6rZh7uJlnCWao
ZACg5+S97aK77HaJgk775lFYhDiuQBRD6GKLJoqR1Yvg12RN0X1UbCV5hUF0UEOg
HhbNNmZIU9qrKeVKefekDSjzd8xDIU6Ic5w3gKS01CecLQL7/tSpi/s3X+1f4yTj
ozurqNjUV7gBxcyYRw+4vE4aa4qx/gWd
-----END CERTIFICATE-----
