Certificate:
    Data:
        Version: 3 (0x2)
        Serial Number: 22598759 (0x158d467)
        Signature Algorithm: sha256WithRSAEncryption
        Issuer: C = CZ, organizationIdentifier = NTRCZ-47114983, O = "\C4\8Cesk\C3\A1 po\C5\A1ta, s.p.", CN = PostSignum Qualified CA 4
        Validity
            Not Before: Mar 11 07:51:26 2022 GMT
            Not After : Mar 31 07:51:26 2023 GMT
        Subject: C = CZ, organizationIdentifier = NTRCZ-72054506, O = Spr\C3\A1va z\C3\A1kladn\C3\ADch registr\C5\AF, CN = GG_FPSTS_TEST, serialNumber = S275730
        Subject Public Key Info:
            Public Key Algorithm: rsaEncryption
                Public-Key: (2048 bit)
                Modulus:
                    00:b9:2e:cd:e9:5a:73:68:85:4b:50:3e:fb:13:92:
                    a2:db:06:ce:34:fd:8c:74:e5:e2:c6:43:c3:df:1e:
                    db:99:ae:20:80:8c:73:aa:68:75:0d:f4:a3:88:bc:
                    f5:74:a5:d8:0b:cb:83:d8:0a:93:a3:39:fd:84:43:
                    23:ae:3f:4a:01:93:b1:ea:db:ef:5a:b4:86:5b:03:
                    4d:7f:49:4c:a7:47:6c:3a:1b:20:28:b0:27:68:48:
                    9c:16:05:1e:25:a7:ad:8b:77:4c:06:83:c8:25:80:
                    ef:37:a5:e0:03:0b:bc:88:71:9f:8c:f5:98:e1:25:
                    e5:9c:c3:23:fb:d4:07:cf:df:93:1d:20:97:4b:cd:
                    a1:97:ea:9a:d3:f6:f8:94:c2:ee:4e:f3:1a:ef:b3:
                    5a:6a:67:c9:2c:93:66:51:88:b7:3d:79:35:1a:89:
                    5a:0c:67:7e:74:db:a1:4c:4f:cd:87:15:d7:19:32:
                    e3:22:d2:61:52:24:bc:3d:f2:90:3d:d8:e0:22:fd:
                    61:a1:cb:58:a1:87:e2:c6:c4:ad:81:6c:5c:84:e8:
                    50:fc:cf:f7:0a:49:ab:be:43:4b:fe:e7:b5:a0:ea:
                    05:aa:fa:98:bc:65:f3:79:5d:10:a6:58:e0:84:ce:
                    92:17:7a:10:10:e3:1e:aa:ce:e8:66:fd:18:5a:2d:
                    13:d5
                Exponent: 65537 (0x10001)
        X509v3 extensions:
            X509v3 Certificate Policies: 
                Policy: 2.23.134.1.4.1.18.200
                  User Notice:
                    Explicit Text: Tento kvalifikovany certifikat pro elektronickou pecet byl vydan v souladu s narizenim EU c. 910/2014.This is a qualified certificate for electronic seal according to Regulation (EU) No 910/2014.
                  CPS: http://www.postsignum.cz
                Policy: 0.4.0.194112.1.1
            qcStatements: 
                0..0......F..0j.....F..0`0..(https://www.postsignum.cz/pds/pds_en.pdf..en0..(https://www.postsignum.cz/pds/pds_cs.pdf..cs0......F..0......F...
            Authority Information Access: 
                CA Issuers - URI:http://crt.postsignum.cz/crt/psqualifiedca4.crt
                OCSP - URI:http://ocsp.postsignum.cz/OCSP/QCA4/
            X509v3 Key Usage: critical
                Digital Signature, Non Repudiation, Key Encipherment
            X509v3 Extended Key Usage: 
                E-mail Protection, 1.3.6.1.4.1.311.10.3.12
            X509v3 Authority Key Identifier: 
                0F:28:7C:3E:36:00:38:10:50:AE:3D:B8:21:97:8B:F7:60:5C:61:78
            X509v3 CRL Distribution Points: 
                Full Name:
                  URI:http://crl.postsignum.cz/crl/psqualifiedca4.crl
                Full Name:
                  URI:http://crl2.postsignum.cz/crl/psqualifiedca4.crl
                Full Name:
                  URI:http://crl.postsignum.eu/crl/psqualifiedca4.crl
            X509v3 Subject Key Identifier: 
                82:B5:2B:73:9E:0A:3C:A3:44:26:3B:94:AA:3D:2D:66:7C:F8:6B:15
    Signature Algorithm: sha256WithRSAEncryption
    Signature Value:
        33:ed:22:cd:56:8d:25:a9:13:83:c1:c7:86:41:72:60:0b:a9:
        0a:cc:eb:f0:1d:10:de:96:80:b0:d9:2b:6c:44:29:14:af:61:
        18:ec:41:ef:a9:6a:6a:69:5f:3d:28:32:76:6a:80:bc:10:97:
        6e:01:50:f4:a4:36:4d:9f:b1:f5:f3:6e:60:00:49:1c:f5:5b:
        04:09:de:80:03:e0:0e:18:ff:1e:34:82:63:5e:52:14:3d:d4:
        e0:3d:5e:42:d6:7e:94:dd:4a:28:c6:0e:20:c8:46:63:ac:22:
        32:44:17:87:4f:b8:35:0f:6d:26:80:7c:77:21:45:12:da:16:
        ff:09:be:45:c1:72:32:a6:0a:97:35:4f:1c:76:43:8a:00:da:
        95:37:47:90:5a:10:9f:22:b4:18:27:c4:de:68:52:59:12:d3:
        f1:b2:88:f6:e9:bc:c5:d8:a7:6c:ce:15:8e:63:2e:a1:c4:36:
        af:f4:e9:3b:49:2f:27:2f:db:57:43:e8:fe:8d:18:45:93:30:
        dc:4c:53:3a:a7:76:b9:b1:65:b4:31:3f:33:62:f1:23:ee:8e:
        9d:12:13:8d:5f:be:5c:05:94:72:b0:d1:63:3a:be:48:b4:ff:
        9b:12:0e:db:4e:e3:1a:a7:17:53:1c:51:8d:65:8f:3c:11:4e:
        59:2b:55:94:9e:30:59:e9:c0:7a:5d:17:5b:59:80:30:5c:26:
        3b:02:7d:b2:08:b1:d8:e7:54:62:d7:82:22:aa:5a:92:03:35:
        de:d4:6d:49:4f:93:09:5d:f7:32:b4:69:6f:10:7d:4f:9d:2e:
        70:6e:90:60:82:c3:09:e4:aa:e9:0e:39:ce:a8:bc:77:fd:b0:
        99:7e:6f:21:5d:e7:f1:34:f4:5f:23:7e:fc:aa:d7:e6:42:0e:
        e6:8c:d3:9c:f2:06:b4:88:7a:fc:2e:23:9f:c8:b4:27:86:75:
        57:27:2e:3f:45:7d:44:f2:f9:e6:16:43:24:56:2e:4c:7c:6e:
        06:9d:c2:d3:0a:64:8d:1b:3c:e8:9f:17:f5:d2:46:f8:4c:76:
        4c:27:69:df:3c:7e:57:63:d1:0d:9b:fb:4b:fe:1c:53:a6:a1:
        d1:82:54:5d:2d:8b:64:cd:57:e2:b4:f3:1c:ae:f7:eb:b2:dc:
        59:db:c8:b2:60:e9:d4:3e:c8:f4:0c:01:b0:32:cc:02:7e:12:
        74:49:a3:05:ad:91:3b:dc:31:dd:21:f1:90:6f:49:14:4c:a2:
        11:3d:fc:97:a9:23:98:5a:99:b5:10:59:39:2b:b6:03:49:41:
        d2:70:c4:c4:9e:01:10:db:86:15:0e:6a:fa:5a:27:6b:34:98:
        f9:ee:e2:eb:6d:c5:85:08
-----BEGIN CERTIFICATE-----
MIIH0jCCBbqgAwIBAgIEAVjUZzANBgkqhkiG9w0BAQsFADBpMQswCQYDVQQGEwJD
WjEXMBUGA1UEYRMOTlRSQ1otNDcxMTQ5ODMxHTAbBgNVBAoMFMSMZXNrw6EgcG/F
oXRhLCBzLnAuMSIwIAYDVQQDExlQb3N0U2lnbnVtIFF1YWxpZmllZCBDQSA0MB4X
DTIyMDMxMTA3NTEyNloXDTIzMDMzMTA3NTEyNloweTELMAkGA1UEBhMCQ1oxFzAV
BgNVBGETDk5UUkNaLTcyMDU0NTA2MScwJQYDVQQKDB5TcHLDoXZhIHrDoWtsYWRu
w61jaCByZWdpc3Ryxa8xFjAUBgNVBAMMDUdHX0ZQU1RTX1RFU1QxEDAOBgNVBAUT
B1MyNzU3MzAwggEiMA0GCSqGSIb3DQEBAQUAA4IBDwAwggEKAoIBAQC5Ls3pWnNo
hUtQPvsTkqLbBs40/Yx05eLGQ8PfHtuZriCAjHOqaHUN9KOIvPV0pdgLy4PYCpOj
Of2EQyOuP0oBk7Hq2+9atIZbA01/SUynR2w6GyAosCdoSJwWBR4lp62Ld0wGg8gl
gO83peADC7yIcZ+M9ZjhJeWcwyP71AfP35MdIJdLzaGX6prT9viUwu5O8xrvs1pq
Z8ksk2ZRiLc9eTUaiVoMZ35026FMT82HFdcZMuMi0mFSJLw98pA92OAi/WGhy1ih
h+LGxK2BbFyE6FD8z/cKSau+Q0v+57Wg6gWq+pi8ZfN5XRCmWOCEzpIXehAQ4x6q
zuhm/RhaLRPVAgMBAAGjggNwMIIDbDCCASYGA1UdIASCAR0wggEZMIIBCgYJZ4EG
AQQBEoFIMIH8MIHTBggrBgEFBQcCAjCBxhqBw1RlbnRvIGt2YWxpZmlrb3Zhbnkg
Y2VydGlmaWthdCBwcm8gZWxla3Ryb25pY2tvdSBwZWNldCBieWwgdnlkYW4gdiBz
b3VsYWR1IHMgbmFyaXplbmltIEVVIGMuIDkxMC8yMDE0LlRoaXMgaXMgYSBxdWFs
aWZpZWQgY2VydGlmaWNhdGUgZm9yIGVsZWN0cm9uaWMgc2VhbCBhY2NvcmRpbmcg
dG8gUmVndWxhdGlvbiAoRVUpIE5vIDkxMC8yMDE0LjAkBggrBgEFBQcCARYYaHR0
cDovL3d3dy5wb3N0c2lnbnVtLmN6MAkGBwQAi+xAAQEwgZsGCCsGAQUFBwEDBIGO
MIGLMAgGBgQAjkYBATBqBgYEAI5GAQUwYDAuFihodHRwczovL3d3dy5wb3N0c2ln
bnVtLmN6L3Bkcy9wZHNfZW4ucGRmEwJlbjAuFihodHRwczovL3d3dy5wb3N0c2ln
bnVtLmN6L3Bkcy9wZHNfY3MucGRmEwJjczATBgYEAI5GAQYwCQYHBACORgEGAjB9
BggrBgEFBQcBAQRxMG8wOwYIKwYBBQUHMAKGL2h0dHA6Ly9jcnQucG9zdHNpZ251
bS5jei9jcnQvcHNxdWFsaWZpZWRjYTQuY3J0MDAGCCsGAQUFBzABhiRodHRwOi8v
b2NzcC5wb3N0c2lnbnVtLmN6L09DU1AvUUNBNC8wDgYDVR0PAQH/BAQDAgXgMB8G
A1UdJQQYMBYGCCsGAQUFBwMEBgorBgEEAYI3CgMMMB8GA1UdIwQYMBaAFA8ofD42
ADgQUK49uCGXi/dgXGF4MIGxBgNVHR8EgakwgaYwNaAzoDGGL2h0dHA6Ly9jcmwu
cG9zdHNpZ251bS5jei9jcmwvcHNxdWFsaWZpZWRjYTQuY3JsMDagNKAyhjBodHRw
Oi8vY3JsMi5wb3N0c2lnbnVtLmN6L2NybC9wc3F1YWxpZmllZGNhNC5jcmwwNaAz
oDGGL2h0dHA6Ly9jcmwucG9zdHNpZ251bS5ldS9jcmwvcHNxdWFsaWZpZWRjYTQu
Y3JsMB0GA1UdDgQWBBSCtStzngo8o0QmO5SqPS1mfPhrFTANBgkqhkiG9w0BAQsF
AAOCAgEAM+0izVaNJakTg8HHhkFyYAupCszr8B0Q3paAsNkrbEQpFK9hGOxB76lq
amlfPSgydmqAvBCXbgFQ9KQ2TZ+x9fNuYABJHPVbBAnegAPgDhj/HjSCY15SFD3U
4D1eQtZ+lN1KKMYOIMhGY6wiMkQXh0+4NQ9tJoB8dyFFEtoW/wm+RcFyMqYKlzVP
HHZDigDalTdHkFoQnyK0GCfE3mhSWRLT8bKI9um8xdinbM4VjmMuocQ2r/TpO0kv
Jy/bV0Po/o0YRZMw3ExTOqd2ubFltDE/M2LxI+6OnRITjV++XAWUcrDRYzq+SLT/
mxIO207jGqcXUxxRjWWPPBFOWStVlJ4wWenAel0XW1mAMFwmOwJ9sgix2OdUYteC
IqpakgM13tRtSU+TCV33MrRpbxB9T50ucG6QYILDCeSq6Q45zqi8d/2wmX5vIV3n
8TT0XyN+/KrX5kIO5ozTnPIGtIh6/C4jn8i0J4Z1VycuP0V9RPL55hZDJFYuTHxu
Bp3C0wpkjRs86J8X9dJG+Ex2TCdp3zx+V2PRDZv7S/4cU6ah0YJUXS2LZM1X4rTz
HK7367LcWdvIsmDp1D7I9AwBsDLMAn4SdEmjBa2RO9wx3SHxkG9JFEyiET38l6kj
mFqZtRBZOSu2A0lB0nDExJ4BENuGFQ5q+lonazSY+e7i623FhQg=
-----END CERTIFICATE-----
