Certificate:
    Data:
        Version: 3 (0x2)
        Serial Number: 22351394 (0x1550e22)
        Signature Algorithm: sha256WithRSAEncryption
        Issuer: C = CZ, organizationIdentifier = NTRCZ-47114983, O = "\C4\8Cesk\C3\A1 po\C5\A1ta, s.p.", CN = PostSignum Qualified CA 4
        Validity
            Not Before: Mar  2 07:40:41 2021 GMT
            Not After : Mar 22 07:40:41 2022 GMT
        Subject: C = CZ, organizationIdentifier = NTRCZ-72054506, O = Spr\C3\A1va z\C3\A1kladn\C3\ADch registr\C5\AF, CN = GG_FPSTS_TEST, serialNumber = S275730
        Subject Public Key Info:
            Public Key Algorithm: rsaEncryption
                RSA Public-Key: (2048 bit)
                Modulus:
                    00:c9:05:d9:f0:ac:85:c2:50:02:ba:7e:93:e1:41:
                    85:c7:18:ac:91:2b:bb:b9:ca:a8:70:f4:e5:54:b1:
                    a9:8f:eb:2e:12:9e:a8:be:af:fd:33:2b:9d:66:ed:
                    d5:fa:40:10:64:f6:e1:95:eb:ee:cd:4c:9c:14:fe:
                    85:6c:17:b8:80:e4:77:43:fd:0d:67:c7:49:97:c9:
                    aa:c7:af:b0:3d:ef:4c:90:ee:76:a1:04:f4:dc:78:
                    b6:e9:02:e5:84:b1:be:ff:44:02:8d:84:ec:f9:8c:
                    d5:0b:2b:ae:95:20:55:1b:e5:87:8b:e9:22:5c:67:
                    10:37:d7:f4:3e:b3:8b:f5:04:74:05:44:bd:41:cf:
                    45:31:4b:0c:38:c1:1d:d3:ad:e0:1b:3d:bc:80:d9:
                    fc:72:eb:fc:14:72:a4:5a:b4:b5:57:78:fa:fc:a3:
                    9c:f5:1a:ee:04:64:d0:2b:8f:a3:94:7e:f3:46:b0:
                    00:03:20:df:e4:db:d1:69:5d:22:50:50:ae:b8:b0:
                    55:bb:f9:f6:76:e3:5d:a0:55:54:56:d2:3c:37:db:
                    e7:0a:63:cb:ab:80:ac:b0:a1:08:aa:71:00:44:12:
                    a6:50:a3:6b:17:78:76:60:27:5f:c4:35:62:05:fb:
                    a9:46:f5:97:21:f4:94:1c:87:80:c1:37:3f:04:4e:
                    8e:79
                Exponent: 65537 (0x10001)
        X509v3 extensions:
            X509v3 Certificate Policies: 
                Policy: 2.23.134.1.4.1.18.200
                  User Notice:
                    Explicit Text: Tento kvalifikovany certifikat pro elektronickou pecet byl vydan v souladu s narizenim EU c. 910/2014.This is a qualified certificate for electronic seal according to Regulation (EU) No 910/2014.
                  CPS: http://www.postsignum.cz
                Policy: 0.4.0.194112.1.1

            qcStatements: 
                0..0......F..0j.....F..0`0..(https://www.postsignum.cz/pds/pds_en.pdf..en0..(https://www.postsignum.cz/pds/pds_cs.pdf..cs0......F..0......F...
            Authority Information Access: 
                CA Issuers - URI:http://crt.postsignum.cz/crt/psqualifiedca4.crt
                OCSP - URI:http://ocsp.postsignum.cz/OCSP/QCA4/

            X509v3 Key Usage: critical
                Digital Signature, Non Repudiation, Key Encipherment
            X509v3 Extended Key Usage: 
                E-mail Protection, 1.3.6.1.4.1.311.10.3.12
            X509v3 Authority Key Identifier: 
                keyid:0F:28:7C:3E:36:00:38:10:50:AE:3D:B8:21:97:8B:F7:60:5C:61:78

            X509v3 CRL Distribution Points: 

                Full Name:
                  URI:http://crl.postsignum.cz/crl/psqualifiedca4.crl

                Full Name:
                  URI:http://crl2.postsignum.cz/crl/psqualifiedca4.crl

                Full Name:
                  URI:http://crl.postsignum.eu/crl/psqualifiedca4.crl

            X509v3 Subject Key Identifier: 
                0C:0D:4A:B8:0E:47:80:ED:DF:18:13:95:9A:34:00:D6:10:67:35:F7
    Signature Algorithm: sha256WithRSAEncryption
         a4:43:0b:ee:7b:d3:58:60:b5:22:27:f0:d0:59:ab:13:7c:14:
         1a:10:7f:e4:f4:86:21:be:d8:9d:b6:73:c0:0e:ca:ab:0f:5d:
         4b:1d:99:7f:bb:3f:2c:61:a7:8c:01:77:b9:9a:4d:18:6a:8c:
         38:27:05:21:ae:1b:8b:f8:31:f6:14:b4:dc:78:a8:c8:84:74:
         29:75:02:96:db:f1:d1:7e:fd:bf:9a:f1:4a:57:4e:26:5f:f5:
         a8:ff:2b:ce:f8:54:1e:66:95:be:f7:29:a3:94:ab:c1:71:64:
         95:a9:eb:d8:4e:ca:b6:55:f2:ae:ba:8f:8e:5a:f2:80:b7:73:
         78:a2:27:f7:8f:c4:26:20:c7:91:2c:b1:3f:78:45:38:5b:95:
         49:c8:8e:89:2c:bb:10:8d:26:13:95:11:42:38:ba:b7:92:fb:
         d6:fb:a7:9e:0b:89:bf:cb:9a:3f:d3:93:17:22:55:e1:de:84:
         11:85:c1:82:c4:5c:e4:d4:4b:21:64:92:a8:9f:67:26:02:7b:
         41:f3:84:64:e1:bf:82:d5:69:55:d3:ce:85:ae:46:16:76:42:
         a1:c9:58:93:c3:0c:05:76:66:a8:b0:65:35:d6:88:93:cc:2b:
         76:d7:43:89:2a:ae:45:3a:47:29:fc:e6:a2:7a:a1:10:14:a0:
         9e:20:42:1c:a2:19:2f:bb:e1:6d:f8:91:bb:ce:8a:81:11:f0:
         48:53:41:a8:8c:69:7d:3a:36:4a:97:fe:3c:1f:bd:a9:78:0f:
         b3:7e:0f:79:3f:3a:57:7e:cf:cd:83:e9:62:9d:ac:ca:1f:26:
         13:57:bc:bf:aa:c1:89:5d:dd:ec:b9:86:bb:78:39:10:ba:5b:
         1d:9d:84:c8:78:d5:1d:04:62:b8:0b:d5:fc:90:f8:95:ed:4c:
         4d:32:3b:68:97:df:14:89:bc:da:e5:57:bc:81:00:f0:db:23:
         af:98:53:10:66:03:82:7f:6d:f3:91:82:fa:2d:b5:92:14:dc:
         aa:ed:32:ca:47:15:81:13:26:64:b6:15:26:06:b1:e4:94:77:
         fb:00:17:6c:a7:ca:c0:37:ac:dc:89:ea:e5:fd:7c:21:38:56:
         68:9e:5f:d0:80:05:57:8a:0a:d6:8c:56:c2:e8:56:71:e2:57:
         6d:8a:5a:43:ca:5b:d7:29:d4:22:2d:aa:85:1f:7c:4b:d9:d8:
         d8:c9:d3:50:ba:2b:f7:dc:c3:93:72:d9:b2:61:12:9b:95:5c:
         23:f1:f6:30:70:5a:07:f9:9c:eb:f5:21:2d:9b:d1:3f:76:72:
         2a:6b:28:c8:4f:8d:34:98:eb:03:e0:60:0b:c9:aa:5b:59:73:
         ae:4d:a7:63:9d:e9:f2:9c
-----BEGIN CERTIFICATE-----
MIIH0jCCBbqgAwIBAgIEAVUOIjANBgkqhkiG9w0BAQsFADBpMQswCQYDVQQGEwJD
WjEXMBUGA1UEYRMOTlRSQ1otNDcxMTQ5ODMxHTAbBgNVBAoMFMSMZXNrw6EgcG/F
oXRhLCBzLnAuMSIwIAYDVQQDExlQb3N0U2lnbnVtIFF1YWxpZmllZCBDQSA0MB4X
DTIxMDMwMjA3NDA0MVoXDTIyMDMyMjA3NDA0MVoweTELMAkGA1UEBhMCQ1oxFzAV
BgNVBGETDk5UUkNaLTcyMDU0NTA2MScwJQYDVQQKDB5TcHLDoXZhIHrDoWtsYWRu
w61jaCByZWdpc3Ryxa8xFjAUBgNVBAMMDUdHX0ZQU1RTX1RFU1QxEDAOBgNVBAUT
B1MyNzU3MzAwggEiMA0GCSqGSIb3DQEBAQUAA4IBDwAwggEKAoIBAQDJBdnwrIXC
UAK6fpPhQYXHGKyRK7u5yqhw9OVUsamP6y4Snqi+r/0zK51m7dX6QBBk9uGV6+7N
TJwU/oVsF7iA5HdD/Q1nx0mXyarHr7A970yQ7nahBPTceLbpAuWEsb7/RAKNhOz5
jNULK66VIFUb5YeL6SJcZxA31/Q+s4v1BHQFRL1Bz0UxSww4wR3TreAbPbyA2fxy
6/wUcqRatLVXePr8o5z1Gu4EZNArj6OUfvNGsAADIN/k29FpXSJQUK64sFW7+fZ2
412gVVRW0jw32+cKY8urgKywoQiqcQBEEqZQo2sXeHZgJ1/ENWIF+6lG9Zch9JQc
h4DBNz8ETo55AgMBAAGjggNwMIIDbDCCASYGA1UdIASCAR0wggEZMIIBCgYJZ4EG
AQQBEoFIMIH8MIHTBggrBgEFBQcCAjCBxhqBw1RlbnRvIGt2YWxpZmlrb3Zhbnkg
Y2VydGlmaWthdCBwcm8gZWxla3Ryb25pY2tvdSBwZWNldCBieWwgdnlkYW4gdiBz
b3VsYWR1IHMgbmFyaXplbmltIEVVIGMuIDkxMC8yMDE0LlRoaXMgaXMgYSBxdWFs
aWZpZWQgY2VydGlmaWNhdGUgZm9yIGVsZWN0cm9uaWMgc2VhbCBhY2NvcmRpbmcg
dG8gUmVndWxhdGlvbiAoRVUpIE5vIDkxMC8yMDE0LjAkBggrBgEFBQcCARYYaHR0
cDovL3d3dy5wb3N0c2lnbnVtLmN6MAkGBwQAi+xAAQEwgZsGCCsGAQUFBwEDBIGO
MIGLMAgGBgQAjkYBATBqBgYEAI5GAQUwYDAuFihodHRwczovL3d3dy5wb3N0c2ln
bnVtLmN6L3Bkcy9wZHNfZW4ucGRmEwJlbjAuFihodHRwczovL3d3dy5wb3N0c2ln
bnVtLmN6L3Bkcy9wZHNfY3MucGRmEwJjczATBgYEAI5GAQYwCQYHBACORgEGAjB9
BggrBgEFBQcBAQRxMG8wOwYIKwYBBQUHMAKGL2h0dHA6Ly9jcnQucG9zdHNpZ251
bS5jei9jcnQvcHNxdWFsaWZpZWRjYTQuY3J0MDAGCCsGAQUFBzABhiRodHRwOi8v
b2NzcC5wb3N0c2lnbnVtLmN6L09DU1AvUUNBNC8wDgYDVR0PAQH/BAQDAgXgMB8G
A1UdJQQYMBYGCCsGAQUFBwMEBgorBgEEAYI3CgMMMB8GA1UdIwQYMBaAFA8ofD42
ADgQUK49uCGXi/dgXGF4MIGxBgNVHR8EgakwgaYwNaAzoDGGL2h0dHA6Ly9jcmwu
cG9zdHNpZ251bS5jei9jcmwvcHNxdWFsaWZpZWRjYTQuY3JsMDagNKAyhjBodHRw
Oi8vY3JsMi5wb3N0c2lnbnVtLmN6L2NybC9wc3F1YWxpZmllZGNhNC5jcmwwNaAz
oDGGL2h0dHA6Ly9jcmwucG9zdHNpZ251bS5ldS9jcmwvcHNxdWFsaWZpZWRjYTQu
Y3JsMB0GA1UdDgQWBBQMDUq4DkeA7d8YE5WaNADWEGc19zANBgkqhkiG9w0BAQsF
AAOCAgEApEML7nvTWGC1Iifw0FmrE3wUGhB/5PSGIb7YnbZzwA7Kqw9dSx2Zf7s/
LGGnjAF3uZpNGGqMOCcFIa4bi/gx9hS03HioyIR0KXUCltvx0X79v5rxSldOJl/1
qP8rzvhUHmaVvvcpo5SrwXFklanr2E7KtlXyrrqPjlrygLdzeKIn94/EJiDHkSyx
P3hFOFuVSciOiSy7EI0mE5URQji6t5L71vunnguJv8uaP9OTFyJV4d6EEYXBgsRc
5NRLIWSSqJ9nJgJ7QfOEZOG/gtVpVdPOha5GFnZCoclYk8MMBXZmqLBlNdaIk8wr
dtdDiSquRTpHKfzmonqhEBSgniBCHKIZL7vhbfiRu86KgRHwSFNBqIxpfTo2Spf+
PB+9qXgPs34PeT86V37PzYPpYp2syh8mE1e8v6rBiV3d7LmGu3g5ELpbHZ2EyHjV
HQRiuAvV/JD4le1MTTI7aJffFIm82uVXvIEA8Nsjr5hTEGYDgn9t85GC+i21khTc
qu0yykcVgRMmZLYVJgax5JR3+wAXbKfKwDes3Inq5f18IThWaJ5f0IAFV4oK1oxW
wuhWceJXbYpaQ8pb1ynUIi2qhR98S9nY2MnTULor99zDk3LZsmESm5VcI/H2MHBa
B/mc6/UhLZvRP3ZyKmsoyE+NNJjrA+BgC8mqW1lzrk2nY53p8pw=
-----END CERTIFICATE-----
